; Function Attrs: mustprogress uwtable
define void @_ZN9grpc_core14SubchannelCall5UnrefEv(ptr noundef nonnull align 8 dereferenceable(72) %this) local_unnamed_addr #3 align 2 {
entry:
  %add.ptr = getelementptr inbounds i8, ptr %this, i64 80
  %0 = atomicrmw sub ptr %add.ptr, i64 1 acq_rel, align 8
  %cmp.i.i = icmp eq i64 %0, 1
  br i1 %cmp.i.i, label %if.then.i, label %_Z17grpc_stream_unrefP20grpc_stream_refcount.exit

if.then.i:                                        ; preds = %entry
  tail call void @_Z19grpc_stream_destroyP20grpc_stream_refcount(ptr noundef nonnull %add.ptr)
  br label %_Z17grpc_stream_unrefP20grpc_stream_refcount.exit

_Z17grpc_stream_unrefP20grpc_stream_refcount.exit: ; preds = %entry, %if.then.i
  ret void
}